; Function Attrs: mustprogress nofree norecurse nosync nounwind willreturn memory(argmem: read) uwtable
define hidden range(i32 0, 2) i32 @nghttp2_stream_check_deferred_item(ptr noundef readonly captures(none) %0) local_unnamed_addr #5 {
  %2 = getelementptr inbounds nuw i8, ptr %0, i64 64
  %3 = load ptr, ptr %2, align 8, !tbaa !18
  %.not = icmp eq ptr %3, null
  br i1 %.not, label %10, label %4

4:                                                ; preds = %1
  %5 = getelementptr inbounds nuw i8, ptr %0, i64 116
  %6 = load i8, ptr %5, align 4, !tbaa !14
  %7 = and i8 %6, 12
  %8 = icmp ne i8 %7, 0
  %9 = zext i1 %8 to i32
  br label %10

10:                                               ; preds = %4, %1
  %11 = phi i32 [ 0, %1 ], [ %9, %4 ]
  ret i32 %11
}